target datalayout = "e-m:e-p270:32:32-p271:32:32-p272:64:64-i64:64-i128:128-f80:128-n8:16:32:64-S128"
target triple = "x86_64-pc-linux-gnu"

@plane_to_code_lut = internal constant [128 x i8] c"`I7'\17\0D\05\01\FF\FF\FF\FF\FF\FF\FF\FFeN:*\1A\10\08\02\00\03\09\11\1B+;OfV>. \14\0A\06\04\07\0B\15!/?WiZF4%\1C\12\0E\0C\0F\13\1D&5G[ncRB0#\1E\18\16\19\1F$1CSdsl^L@2,(\22)-3AM_mvqg\\PD<869=EQ]hrwtojaXTJHKUYbkpu", align 16

; Function Attrs: nounwind uwtable
define hidden i32 @VP8LDistanceToPlaneCode(i32 noundef %0, i32 noundef %1) #0 {
  %3 = alloca i32, align 4
  %4 = alloca i32, align 4
  %5 = alloca i32, align 4
  %6 = alloca i32, align 4
  %7 = alloca i32, align 4
  %8 = alloca i32, align 4
  store i32 %0, ptr %4, align 4, !tbaa !3
  store i32 %1, ptr %5, align 4, !tbaa !3
  call void @llvm.lifetime.start.p0(i64 4, ptr %6) #7
  %9 = load i32, ptr %5, align 4, !tbaa !3
  %10 = load i32, ptr %4, align 4, !tbaa !3
  %11 = sdiv i32 %9, %10
  store i32 %11, ptr %6, align 4, !tbaa !3
  call void @llvm.lifetime.start.p0(i64 4, ptr %7) #7
  %12 = load i32, ptr %5, align 4, !tbaa !3
  %13 = load i32, ptr %6, align 4, !tbaa !3
  %14 = load i32, ptr %4, align 4, !tbaa !3
  %15 = mul nsw i32 %13, %14
  %16 = sub nsw i32 %12, %15
  store i32 %16, ptr %7, align 4, !tbaa !3
  %17 = load i32, ptr %7, align 4, !tbaa !3
  %18 = icmp sle i32 %17, 8
  br i1 %18, label %19, label %33

19:                                               ; preds = %2
  %20 = load i32, ptr %6, align 4, !tbaa !3
  %21 = icmp slt i32 %20, 8
  br i1 %21, label %22, label %33

22:                                               ; preds = %19
  %23 = load i32, ptr %6, align 4, !tbaa !3
  %24 = mul nsw i32 %23, 16
  %25 = add nsw i32 %24, 8
  %26 = load i32, ptr %7, align 4, !tbaa !3
  %27 = sub nsw i32 %25, %26
  %28 = sext i32 %27 to i64
  %29 = getelementptr inbounds [128 x i8], ptr @plane_to_code_lut, i64 0, i64 %28
  %30 = load i8, ptr %29, align 1, !tbaa !7
  %31 = zext i8 %30 to i32
  %32 = add nsw i32 %31, 1
  store i32 %32, ptr %3, align 4
  store i32 1, ptr %8, align 4
  br label %59

33:                                               ; preds = %19, %2
  %34 = load i32, ptr %7, align 4, !tbaa !3
  %35 = load i32, ptr %4, align 4, !tbaa !3
  %36 = sub nsw i32 %35, 8
  %37 = icmp sgt i32 %34, %36
  br i1 %37, label %38, label %55

38:                                               ; preds = %33
  %39 = load i32, ptr %6, align 4, !tbaa !3
  %40 = icmp slt i32 %39, 7
  br i1 %40, label %41, label %55

41:                                               ; preds = %38
  %42 = load i32, ptr %6, align 4, !tbaa !3
  %43 = add nsw i32 %42, 1
  %44 = mul nsw i32 %43, 16
  %45 = add nsw i32 %44, 8
  %46 = load i32, ptr %4, align 4, !tbaa !3
  %47 = load i32, ptr %7, align 4, !tbaa !3
  %48 = sub nsw i32 %46, %47
  %49 = add nsw i32 %45, %48
  %50 = sext i32 %49 to i64
  %51 = getelementptr inbounds [128 x i8], ptr @plane_to_code_lut, i64 0, i64 %50
  %52 = load i8, ptr %51, align 1, !tbaa !7
  %53 = zext i8 %52 to i32
  %54 = add nsw i32 %53, 1
  store i32 %54, ptr %3, align 4
  store i32 1, ptr %8, align 4
  br label %59

55:                                               ; preds = %38, %33
  br label %56

56:                                               ; preds = %55
  %57 = load i32, ptr %5, align 4, !tbaa !3
  %58 = add nsw i32 %57, 120
  store i32 %58, ptr %3, align 4
  store i32 1, ptr %8, align 4
  br label %59

59:                                               ; preds = %56, %41, %22
  call void @llvm.lifetime.end.p0(i64 4, ptr %7) #7
  call void @llvm.lifetime.end.p0(i64 4, ptr %6) #7
  %60 = load i32, ptr %3, align 4
  ret i32 %60
}