; Function Attrs: mustprogress nofree norecurse nosync nounwind willreturn memory(none) uwtable
define hidden range(i32 -2147483528, -2147483648) i32 @VP8LDistanceToPlaneCode(i32 noundef %0, i32 noundef %1) local_unnamed_addr #0 {
  %3 = sdiv i32 %1, %0
  %4 = mul nsw i32 %3, %0
  %.recomposed = srem i32 %1, %0
  %5 = icmp slt i32 %.recomposed, 9
  %6 = icmp slt i32 %3, 8
  %or.cond = and i1 %6, %5
  br i1 %or.cond, label %7, label %16

7:                                                ; preds = %2
  %8 = shl nsw i32 %3, 4
  %9 = or disjoint i32 %8, 8
  %10 = sub i32 %9, %.recomposed
  %11 = sext i32 %10 to i64
  %12 = getelementptr inbounds [128 x i8], ptr @plane_to_code_lut, i64 0, i64 %11
  %13 = load i8, ptr %12, align 1, !tbaa !3
  %14 = zext i8 %13 to i32
  %15 = add nuw nsw i32 %14, 1
  br label %32

16:                                               ; preds = %2
  %17 = add nsw i32 %0, -8
  %18 = icmp sgt i32 %.recomposed, %17
  %19 = icmp slt i32 %3, 7
  %or.cond3 = and i1 %19, %18
  br i1 %or.cond3, label %20, label %30

20:                                               ; preds = %16
  %21 = shl i32 %3, 4
  %22 = add i32 %0, 24
  %23 = add i32 %22, %21
  %24 = sub i32 %23, %.recomposed
  %25 = sext i32 %24 to i64
  %26 = getelementptr inbounds [128 x i8], ptr @plane_to_code_lut, i64 0, i64 %25
  %27 = load i8, ptr %26, align 1, !tbaa !3
  %28 = zext i8 %27 to i32
  %29 = add nuw nsw i32 %28, 1
  br label %32

30:                                               ; preds = %16
  %31 = add nsw i32 %1, 120
  br label %32

32:                                               ; preds = %30, %20, %7
  %.0 = phi i32 [ %15, %7 ], [ %29, %20 ], [ %31, %30 ]
  ret i32 %.0
}